(dp0
cnumpy.core.multiarray
scalar
p1
(cnumpy
dtype
p2
(S'i8'
p3
I0
I1
tp4
Rp5
(I3
S'<'
p6
NNNI-1
I-1
I0
tp7
bS'\xf2\xc1\x00\x00\x00\x00\x00\x00'
p8
tp9
Rp10
(lp11
(F47.61327457266563
F-122.34217166966295
tp12
a(F47.613959174120545
F-122.34332952734536
tp13
asg1
(g5
S'\x01\x04\x00\x00\x00\x00\x00\x00'
p14
tp15
Rp16
(lp17
(F47.61412172503005
F-122.34796012163642
tp18
a(F47.614624911518256
F-122.34881098651763
tp19
asg1
(g5
S'\x02\x04\x00\x00\x00\x00\x00\x00'
p20
tp21
Rp22
(lp23
(F47.61423934964423
F-122.34780798165792
tp24
a(F47.614742537268484
F-122.34865884699131
tp25
asg1
(g5
S'\x05\x04\x00\x00\x00\x00\x00\x00'
p26
tp27
Rp28
(lp29
(F47.61632665810522
F-122.35169495876319
tp30
a(F47.61684262185784
F-122.35256937964816
tp31
asg1
(g5
S'\x06\x04\x00\x00\x00\x00\x00\x00'
p32
tp33
Rp34
(lp35
(F47.61645292411208
F-122.35152662468259
tp36
a(F47.61696888915642
F-122.35240104602018
tp37
asg1
(g5
S'\x01/\x01\x00\x00\x00\x00\x00'
p38
tp39
Rp40
(lp41
(F47.6151205508097
F-122.35329557066476
tp42
a(F47.615729388616295
F-122.35250807679178
tp43
asg1
(g5
S'\t\x04\x00\x00\x00\x00\x00\x00'
p44
tp45
Rp46
(lp47
(F47.616901622908834
F-122.35265706437055
tp48
a(F47.61763410136969
F-122.35389889998396
tp49
asg1
(g5
S'\n\x04\x00\x00\x00\x00\x00\x00'
p50
tp51
Rp52
(lp53
(F47.61702297712443
F-122.35251123920611
tp54
a(F47.617755457174226
F-122.35375307566295
tp55
asg1
(g5
S'\x02/\x01\x00\x00\x00\x00\x00'
p56
tp57
Rp58
(lp59
(F47.61501845432842
F-122.35312599384258
tp60
a(F47.61562729095967
F-122.35233849979005
tp61
asg1
(g5
S'\xad\xb4\x00\x00\x00\x00\x00\x00'
p62
tp63
Rp64
(lp65
(F47.61104235553582
F-122.34275346207967
tp66
a(F47.61176278887372
F-122.34397090350599
tp67
asg1
(g5
S'\x05/\x01\x00\x00\x00\x00\x00'
p68
tp69
Rp70
(lp71
(F47.615784936286175
F-122.35243624918947
tp72
a(F47.61635497097651
F-122.35169918630528
tp73
asg1
(g5
S'\xae\xb4\x00\x00\x00\x00\x00\x00'
p74
tp75
Rp76
(lp77
(F47.61115788701011
F-122.34260395023772
tp78
a(F47.6118783219456
F-122.343821392297
tp79
asg1
(g5
S'R+\x01\x00\x00\x00\x00\x00'
p80
tp81
Rp82
(lp83
(F47.61343000576047
F-122.35216184314437
tp84
a(F47.61444419905838
F-122.35387063388247
tp85
asg1
(g5
S'Z\x14\x01\x00\x00\x00\x00\x00'
p86
tp87
Rp88
(lp89
(F47.61182971590355
F-122.34174048056701
tp90
a(F47.61251390400246
F-122.34289738206398
tp91
asg1
(g5
S'\x05\xe5\x00\x00\x00\x00\x00\x00'
p92
tp93
Rp94
(lp95
(F47.61044120604334
F-122.3435363514031
tp96
a(F47.61077181310062
F-122.34311610201566
tp97
asg1
(g5
S'!4\x00\x00\x00\x00\x00\x00'
p98
tp99
Rp100
(lp101
(F47.6147851565513
F-122.34874375978163
tp102
a(F47.61536180086354
F-122.34799914023127
tp103
asg1
(g5
S'"4\x00\x00\x00\x00\x00\x00'
p104
tp105
Rp106
(lp107
(F47.6147145750459
F-122.34860884048072
tp108
a(F47.61529121847638
F-122.3478642204452
tp109
asg1
(g5
S'\xf1;\x01\x00\x00\x00\x00\x00'
p110
tp111
Rp112
(lp113
(F47.61239426896853
F-122.3387426473717
tp114
a(F47.61294964498212
F-122.33802463848477
tp115
asg1
(g5
S'%4\x00\x00\x00\x00\x00\x00'
p116
tp117
Rp118
(lp119
(F47.616130199901015
F-122.34703928395558
tp120
a(F47.61669815128534
F-122.34630622549734
tp121
asg1
(g5
S'\xb1\xd8\x00\x00\x00\x00\x00\x00'
p122
tp123
Rp124
(lp125
(F47.61136821711217
F-122.34532971617335
tp126
a(F47.61164244869679
F-122.34651234493784
tp127
asg1
(g5
S'\xb2\xd8\x00\x00\x00\x00\x00\x00'
p128
tp129
Rp130
(lp131
(F47.61113324673947
F-122.34493973201602
tp132
a(F47.61121990854093
F-122.34522758488141
tp133
asg1
(g5
S'.>\x01\x00\x00\x00\x00\x00'
p134
tp135
Rp136
(lp137
(F47.61795200452583
F-122.35407173927562
tp138
a(F47.61858578696943
F-122.35406646474664
tp139
asg1
(g5
S']\x14\x01\x00\x00\x00\x00\x00'
p140
tp141
Rp142
(lp143
(F47.6124634186536
F-122.34317228017403
tp144
a(F47.61314805978964
F-122.3443298943601
tp145
asg1
(g5
S'\x12\x8d\x00\x00\x00\x00\x00\x00'
p146
tp147
Rp148
(lp149
(F47.61411461530602
F-122.34960542342048
tp150
a(F47.614605258744454
F-122.35043463198615
tp151
asg1
(g5
S'\x06/\x01\x00\x00\x00\x00\x00'
p152
tp153
Rp154
(lp155
(F47.61569188100666
F-122.3522819075088
tp156
a(F47.616261914698754
F-122.35154484425192
tp157
asg1
(g5
S'5\x18\x00\x00\x00\x00\x00\x00'
p158
tp159
Rp160
(lp161
(F47.617228115648885
F-122.34726414924693
tp162
a(F47.617695671051536
F-122.34805525257572
tp163
asg1
(g5
S'6\x18\x00\x00\x00\x00\x00\x00'
p164
tp165
Rp166
(lp167
(F47.6173381060289
F-122.3470682797039
tp168
a(F47.61780566279175
F-122.34785938294495
tp169
asg1
(g5
S'\xbe=\x01\x00\x00\x00\x00\x00'
p170
tp171
Rp172
(lp173
(F47.617377704601836
F-122.34517038991005
tp174
a(F47.617934333112125
F-122.34445146275077
tp175
asg1
(g5
S'=$\x00\x00\x00\x00\x00\x00'
p176
tp177
Rp178
(lp179
(F47.61285223419027
F-122.34732367822427
tp180
a(F47.61341822070005
F-122.34659192582123
tp181
asg1
(g5
S'>$\x00\x00\x00\x00\x00\x00'
p182
tp183
Rp184
(lp185
(F47.61272034457206
F-122.34723570809908
tp186
a(F47.6133295509128
F-122.34644807687746
tp187
asg1
(g5
S'\xf2;\x01\x00\x00\x00\x00\x00'
p188
tp189
Rp190
(lp191
(F47.61230867013092
F-122.33857329106375
tp192
a(F47.61287638653051
F-122.33783932565663
tp193
asg1
(g5
S'E\x8c\x00\x00\x00\x00\x00\x00'
p194
tp195
Rp196
(lp197
(F47.611838185380925
F-122.34176748486735
tp198
a(F47.61244547867543
F-122.34098189098479
tp199
asg1
(g5
S'a\x14\x01\x00\x00\x00\x00\x00'
p200
tp201
Rp202
(lp203
(F47.614767987267584
F-122.3470815688408
tp204
a(F47.6152356209158
F-122.3478722048005
tp205
asg1
(g5
S'I>\x01\x00\x00\x00\x00\x00'
p206
tp207
Rp208
(lp209
(F47.61190929478869
F-122.34618400576349
tp210
a(F47.61262946598308
F-122.34740186550479
tp211
asg1
(g5
S'J>\x01\x00\x00\x00\x00\x00'
p212
tp213
Rp214
(lp215
(F47.612032173379006
F-122.3460653914353
tp216
a(F47.6127469445439
F-122.34727411813715
tp217
asg1
(g5
S'b\x14\x01\x00\x00\x00\x00\x00'
p218
tp219
Rp220
(lp221
(F47.614884070280816
F-122.34692066274417
tp222
a(F47.615351705048965
F-122.34771129876212
tp223
asg1
(g5
S'\x89=\x01\x00\x00\x00\x00\x00'
p224
tp225
Rp226
(lp227
(F47.61666919958209
F-122.3479815995843
tp228
a(F47.61722049947009
F-122.34726905232026
tp229
asg1
(g5
S'\xf1\xc1\x00\x00\x00\x00\x00\x00'
p230
tp231
Rp232
(lp233
(F47.61314068948963
F-122.34233942294938
tp234
a(F47.61383069373236
F-122.34350642076241
tp235
asg1
(g5
S'\xa2-\x01\x00\x00\x00\x00\x00'
p236
tp237
Rp238
(lp239
(F47.61326497098809
F-122.3442322391357
tp240
a(F47.6138742755575
F-122.34344446882454
tp241
asg1
(g5
S'\xb9\xe5\x00\x00\x00\x00\x00\x00'
p242
tp243
Rp244
(lp245
(F47.611409306249925
F-122.34532589218065
tp246
a(F47.61188820725128
F-122.3461360281384
tp247
asg1
(g5
S'Y\x1c\x00\x00\x00\x00\x00\x00'
p248
tp249
Rp250
(lp251
(F47.613709666282666
F-122.33929813048744
tp252
a(F47.61440258082013
F-122.34047035759116
tp253
asg1
(g5
S'Z\x1c\x00\x00\x00\x00\x00\x00'
p254
tp255
Rp256
(lp257
(F47.61382292215655
F-122.33915708145545
tp258
a(F47.61451583796953
F-122.34032930922722
tp259
asg1
(g5
S'\xf9\xe4\x00\x00\x00\x00\x00\x00'
p260
tp261
Rp262
(lp263
(F47.615345895236786
F-122.34968603205108
tp264
a(F47.615955323301236
F-122.34889896906014
tp265
asg1
(g5
S']\x1c\x00\x00\x00\x00\x00\x00'
p266
tp267
Rp268
(lp269
(F47.61447330682701
F-122.34062078701686
tp270
a(F47.61515802605086
F-122.3417787795401
tp271
asg1
(g5
S'^\x1c\x00\x00\x00\x00\x00\x00'
p272
tp273
Rp274
(lp275
(F47.61459352538155
F-122.34045455576441
tp276
a(F47.61528725558507
F-122.34162778583483
tp277
asg1
(g5
S'e\x14\x01\x00\x00\x00\x00\x00'
p278
tp279
Rp280
(lp281
(F47.61698737713154
F-122.35082230140581
tp282
a(F47.61746769603143
F-122.35163471885816
tp283
asg1
(g5
S'\x85\xd8\x00\x00\x00\x00\x00\x00'
p284
tp285
Rp286
(lp287
(F47.61713666374432
F-122.354718723013
tp288
a(F47.61770097862389
F-122.35399019708596
tp289
asg1
(g5
S'a\x1c\x00\x00\x00\x00\x00\x00'
p290
tp291
Rp292
(lp293
(F47.61791081696534
F-122.34636716553564
tp294
a(F47.61839043983224
F-122.34725523202134
tp295
asg1
(g5
S'b\x1c\x00\x00\x00\x00\x00\x00'
p296
tp297
Rp298
(lp299
(F47.61815288055827
F-122.34646454322134
tp300
a(F47.618470573059184
F-122.34705278160317
tp301
asg1
(g5
S'e\x8c\x00\x00\x00\x00\x00\x00'
p302
tp303
Rp304
(lp305
(F47.61345011603288
F-122.35047108608583
tp306
a(F47.61405884533337
F-122.3496834668816
tp307
asg1
(g5
S'f\x8c\x00\x00\x00\x00\x00\x00'
p308
tp309
Rp310
(lp311
(F47.61337224290874
F-122.35034559115378
tp312
a(F47.613980971162945
F-122.3495579719145
tp313
asg1
(g5
S'\x11\x8d\x00\x00\x00\x00\x00\x00'
p314
tp315
Rp316
(lp317
(F47.614016117795884
F-122.34972216510508
tp318
a(F47.61450136870129
F-122.35054226087321
tp319
asg1
(g5
S'id\x00\x00\x00\x00\x00\x00'
p320
tp321
Rp322
(lp323
(F47.61093368200362
F-122.34060417373489
tp324
a(F47.611618183486776
F-122.34176147887992
tp325
asg1
(g5
S'jd\x00\x00\x00\x00\x00\x00'
p326
tp327
Rp328
(lp329
(F47.61106342161357
F-122.34044173631754
tp330
a(F47.61174792385238
F-122.34159904348294
tp331
asg1
(g5
S'md\x00\x00\x00\x00\x00\x00'
p332
tp333
Rp334
(lp335
(F47.613218306988784
F-122.3444486803646
tp336
a(F47.613902302274354
F-122.34560564457439
tp337
asg1
(g5
S'nd\x00\x00\x00\x00\x00\x00'
p338
tp339
Rp340
(lp341
(F47.613356274125394
F-122.34431863665478
tp342
a(F47.614040273410374
F-122.34547559866715
tp343
asg1
(g5
S'\xbd\xe5\x00\x00\x00\x00\x00\x00'
p344
tp345
Rp346
(lp347
(F47.615675739042445
F-122.35252847668669
tp348
a(F47.61614805162651
F-122.35332943832344
tp349
asg1
(g5
S'qd\x00\x00\x00\x00\x00\x00'
p350
tp351
Rp352
(lp353
(F47.61399146915434
F-122.34574438967803
tp354
a(F47.61466986479604
F-122.34690977455489
tp355
asg1
(g5
S'rd\x00\x00\x00\x00\x00\x00'
p356
tp357
Rp358
(lp359
(F47.61411227935395
F-122.34560392542855
tp360
a(F47.61479067643557
F-122.34676931092038
tp361
asg1
(g5
S'.!\x01\x00\x00\x00\x00\x00'
p362
tp363
Rp364
(lp365
(F47.61393776011667
F-122.34131629295952
tp366
a(F47.61462230543693
F-122.34247404040694
tp367
asg1
(g5
S'ud\x00\x00\x00\x00\x00\x00'
p368
tp369
Rp370
(lp371
(F47.61587999647018
F-122.3489316049995
tp372
a(F47.6163874946998
F-122.34978931239476
tp373
asg1
(g5
S'vd\x00\x00\x00\x00\x00\x00'
p374
tp375
Rp376
(lp377
(F47.61599166668974
F-122.34878171035143
tp378
a(F47.61649916604419
F-122.34963941838491
tp379
asg1
(g5
S'i\x8c\x00\x00\x00\x00\x00\x00'
p380
tp381
Rp382
(lp383
(F47.616787189864674
F-122.3461589818342
tp384
a(F47.61734113779828
F-122.34544368578206
tp385
asg1
(g5
S'\x8d=\x01\x00\x00\x00\x00\x00'
p386
tp387
Rp388
(lp389
(F47.617356074680536
F-122.34712077813451
tp390
a(F47.617912039068045
F-122.34640250055564
tp391
asg1
(g5
S'*1\x01\x00\x00\x00\x00\x00'
p392
tp393
Rp394
(lp395
(F47.61454798804109
F-122.35229745495404
tp396
a(F47.615015689367816
F-122.35308717357103
tp397
asg1
(g5
S'j\x8c\x00\x00\x00\x00\x00\x00'
p398
tp399
Rp400
(lp401
(F47.61671043267997
F-122.34603203201725
tp402
a(F47.617266439062895
F-122.34531407652986
tp403
asg1
(g5
S'->\x01\x00\x00\x00\x00\x00'
p404
tp405
Rp406
(lp407
(F47.6180263806088
F-122.35423330823345
tp408
a(F47.61859459952597
F-122.35422858163307
tp409
asg1
(g5
S'\x85,\x00\x00\x00\x00\x00\x00'
p410
tp411
Rp412
(lp413
(F47.61192868628092
F-122.34390701687462
tp414
a(F47.61249041906331
F-122.34318055912009
tp415
asg1
(g5
S'\x86,\x00\x00\x00\x00\x00\x00'
p416
tp417
Rp418
(lp419
(F47.61185288895721
F-122.34377883957349
tp420
a(F47.61240844817422
F-122.3430603645435
tp421
asg1
(g5
S'\x89"\x00\x00\x00\x00\x00\x00'
p422
tp423
Rp424
(lp425
(F47.61436922841761
F-122.3541069332568
tp426
a(F47.61483098965193
F-122.354894199886
tp427
asg1
(g5
S'\x8a$\x00\x00\x00\x00\x00\x00'
p428
tp429
Rp430
(lp431
(F47.61261794893102
F-122.3450852940179
tp432
a(F47.613227146818815
F-122.34429730042017
tp433
asg1
(g5
S'\x8d$\x00\x00\x00\x00\x00\x00'
p434
tp435
Rp436
(lp437
(F47.61402724157947
F-122.34349435774415
tp438
a(F47.61463600445397
F-122.3427065355963
tp439
asg1
(g5
S'\x8e$\x00\x00\x00\x00\x00\x00'
p440
tp441
Rp442
(lp443
(F47.61395808886301
F-122.34334680165804
tp444
a(F47.61455862421163
F-122.34256962516871
tp445
asg1
(g5
S'\x91j\x00\x00\x00\x00\x00\x00'
p446
tp447
Rp448
(lp449
(F47.6165650220229
F-122.34809438757192
tp450
a(F47.617036328365565
F-122.34889168140357
tp451
asg1
(g5
S'\x92|\x00\x00\x00\x00\x00\x00'
p452
tp453
Rp454
(lp455
(F47.6141545483245
F-122.34766503663357
tp456
a(F47.61472873569089
F-122.34692251697896
tp457
asg1
(g5
S'\x95|\x00\x00\x00\x00\x00\x00'
p458
tp459
Rp460
(lp461
(F47.61557202493798
F-122.34610084368883
tp462
a(F47.616180742716345
F-122.34531385629775
tp463
asg1
(g5
S'\x96|\x00\x00\x00\x00\x00\x00'
p464
tp465
Rp466
(lp467
(F47.61548180890672
F-122.34594821704215
tp468
a(F47.61609052563097
F-122.34516122923013
tp469
asg1
(g5
S'\x19\x8d\x00\x00\x00\x00\x00\x00'
p470
tp471
Rp472
(lp473
(F47.61511686426337
F-122.35158282603793
tp474
a(F47.61560572021669
F-122.3524098809489
tp475
asg1
(g5
S'\x1a}\x00\x00\x00\x00\x00\x00'
p476
tp477
Rp478
(lp479
(F47.61471500418997
F-122.34464540296088
tp480
a(F47.615315575213465
F-122.34386874818406
tp481
asg1
(g5
S'\xfa5\x01\x00\x00\x00\x00\x00'
p482
tp483
Rp484
(lp485
(F47.612499255573866
F-122.34293754343263
tp486
a(F47.613073606577984
F-122.34219478209687
tp487
asg1
(g5
S'\xaa\xd6\x00\x00\x00\x00\x00\x00'
p488
tp489
Rp490
(lp491
(F47.61644745155278
F-122.34961996919293
tp492
a(F47.61702349351775
F-122.34887553223496
tp493
asg1
(g5
S'\xa9~\x00\x00\x00\x00\x00\x00'
p494
tp495
Rp496
(lp497
(F47.61523317770424
F-122.35150270044997
tp498
a(F47.61584188838574
F-122.35071471935184
tp499
asg1
(g5
S'\xaa~\x00\x00\x00\x00\x00\x00'
p500
tp501
Rp502
(lp503
(F47.615132062295736
F-122.35133185443712
tp504
a(F47.61570169928633
F-122.3505944534113
tp505
asg1
(g5
S'\xad~\x00\x00\x00\x00\x00\x00'
p506
tp507
Rp508
(lp509
(F47.61722787578623
F-122.3489021232543
tp510
a(F47.61778108208497
F-122.34818681475566
tp511
asg1
(g5
S'\xae~\x00\x00\x00\x00\x00\x00'
p512
tp513
Rp514
(lp515
(F47.61713043733289
F-122.348737287835
tp516
a(F47.6176815860943
F-122.34802463805819
tp517
asg1
(g5
S'\x1d\x8d\x00\x00\x00\x00\x00\x00'
p518
tp519
Rp520
(lp521
(F47.616972204262865
F-122.35476953061702
tp522
a(F47.61769727931539
F-122.35599879061846
tp523
asg1
(g5
S'\xb1~\x00\x00\x00\x00\x00\x00'
p524
tp525
Rp526
(lp527
(F47.617891978319285
F-122.34804873756703
tp528
a(F47.61814173818739
F-122.34772546237203
tp529
asg1
(g5
S'\xb2~\x00\x00\x00\x00\x00\x00'
p530
tp531
Rp532
(lp533
(F47.61779990008103
F-122.34789312628838
tp534
a(F47.61808891816617
F-122.34751903613143
tp535
asg1
(g5
S'\x1e}\x00\x00\x00\x00\x00\x00'
p536
tp537
Rp538
(lp539
(F47.61537620366629
F-122.3437902854795
tp540
a(F47.61598471923927
F-122.34300266830711
tp541
asg1
(g5
S'f\x14\x01\x00\x00\x00\x00\x00'
p542
tp543
Rp544
(lp545
(F47.61711517176143
F-122.35068119514717
tp546
a(F47.617595491842486
F-122.35149361329749
tp547
asg1
(g5
S'\xb9,\x01\x00\x00\x00\x00\x00'
p548
tp549
Rp550
(lp551
(F47.61490002839004
F-122.3469971992933
tp552
a(F47.615469989617246
F-122.3462597456637
tp553
asg1
(g5
S'\xba,\x01\x00\x00\x00\x00\x00'
p554
tp555
Rp556
(lp557
(F47.61479377828653
F-122.3468114499752
tp558
a(F47.615363738311586
F-122.34607399581677
tp559
asg1
(g5
S'\xbd,\x01\x00\x00\x00\x00\x00'
p560
tp561
Rp562
(lp563
(F47.616917649752956
F-122.34439845327785
tp564
a(F47.61746769303023
F-122.34368740867056
tp565
asg1
(g5
S'\xf6\xc1\x00\x00\x00\x00\x00\x00'
p566
tp567
Rp568
(lp569
(F47.614033751736834
F-122.34348029810262
tp570
a(F47.61472664340852
F-122.34465220233953
tp571
asg1
(g5
S'\x85$\x00\x00\x00\x00\x00\x00'
p572
tp573
Rp574
(lp575
(F47.61168139335297
F-122.34654566011554
tp576
a(F47.61177448948088
F-122.3464022910097
tp577
asg1
(g5
S'\xc6\x84\x00\x00\x00\x00\x00\x00'
p578
tp579
Rp580
(lp581
(F47.61384907265008
F-122.34119150622314
tp582
a(F47.61440032964572
F-122.3404783873652
tp583
asg1
(g5
S'!\xc9\x00\x00\x00\x00\x00\x00'
p584
tp585
Rp586
(lp587
(F47.61455208114627
F-122.34275563724067
tp588
a(F47.61523600798507
F-122.34391283345668
tp589
asg1
(g5
S'\xc9\xd6\x00\x00\x00\x00\x00\x00'
p590
tp591
Rp592
(lp593
(F47.617784702244705
F-122.34983494095259
tp594
a(F47.618335840292744
F-122.34912230916193
tp595
asg1
(g5
S'\xca\xd6\x00\x00\x00\x00\x00\x00'
p596
tp597
Rp598
(lp599
(F47.617694229827045
F-122.3496880245094
tp600
a(F47.61830089186675
F-122.34890359666817
tp601
asg1
(g5
S'"\xc9\x00\x00\x00\x00\x00\x00'
p602
tp603
Rp604
(lp605
(F47.614696890885654
F-122.34262484916677
tp606
a(F47.61538081905195
F-122.34378204688421
tp607
asg1
(g5
S'\xce4\x00\x00\x00\x00\x00\x00'
p608
tp609
Rp610
(lp611
(F47.60937881215314
F-122.34201060355784
tp612
a(F47.610247917225294
F-122.34347942855668
tp613
asg1
(g5
S'!\xd4\x00\x00\x00\x00\x00\x00'
p614
tp615
Rp616
(lp617
(F47.61357334774886
F-122.34870281146965
tp618
a(F47.61418230847244
F-122.34791459650157
tp619
asg1
(g5
S'\xd14\x00\x00\x00\x00\x00\x00'
p620
tp621
Rp622
(lp623
(F47.61268226054431
F-122.34748418921035
tp624
a(F47.61338808188088
F-122.34867358301797
tp625
asg1
(g5
S'\xd64\x00\x00\x00\x00\x00\x00'
p626
tp627
Rp628
(lp629
(F47.61789593141851
F-122.35598405438323
tp630
a(F47.61830884383619
F-122.35668456411723
tp631
asg1
(g5
S'\xd90\x01\x00\x00\x00\x00\x00'
p632
tp633
Rp634
(lp635
(F47.617799813214106
F-122.35384102749519
tp636
a(F47.618361545703806
F-122.35311516728758
tp637
asg1
(g5
S'\xda0\x01\x00\x00\x00\x00\x00'
p638
tp639
Rp640
(lp641
(F47.617701903048484
F-122.35368756657682
tp642
a(F47.6182615774027
F-122.35296436606991
tp643
asg1
(g5
S'\xdd\n\x00\x00\x00\x00\x00\x00'
p644
tp645
Rp646
(lp647
(F47.61532475824533
F-122.34799830840606
tp648
a(F47.615845532595266
F-122.34887949403029
tp649
asg1
(g5
S'\xde\n\x00\x00\x00\x00\x00\x00'
p650
tp651
Rp652
(lp653
(F47.615435954209424
F-122.3478599309894
tp654
a(F47.615956729804815
F-122.34874111711686
tp655
asg1
(g5
S'%.\x01\x00\x00\x00\x00\x00'
p656
tp657
Rp658
(lp659
(F47.617024231997924
F-122.35252576926698
tp660
a(F47.61759679058009
F-122.35178506232668
tp661
asg1
(g5
S'\xe1\n\x00\x00\x00\x00\x00\x00'
p662
tp663
Rp664
(lp665
(F47.61644424871726
F-122.34990374619285
tp666
a(F47.61691183691872
F-122.3506945402016
tp667
asg1
(g5
S'\xe2\n\x00\x00\x00\x00\x00\x00'
p668
tp669
Rp670
(lp671
(F47.616560345686295
F-122.34974285681228
tp672
a(F47.61702793500432
F-122.35053365113966
tp673
asg1
(g5
S'\xe5\n\x00\x00\x00\x00\x00\x00'
p674
tp675
Rp676
(lp677
(F47.61755819700364
F-122.35181858220484
tp678
a(F47.61815639010618
F-122.35283023801566
tp679
asg1
(g5
S'\xe6\n\x00\x00\x00\x00\x00\x00'
p680
tp681
Rp682
(lp683
(F47.61768820698446
F-122.35165042273643
tp684
a(F47.6182864015798
F-122.35266207914168
tp685
asg1
(g5
S'\x89\x1a\x01\x00\x00\x00\x00\x00'
p686
tp687
Rp688
(lp689
(F47.61711725580771
F-122.3490285872511
tp690
a(F47.61759368457
F-122.34983459409723
tp691
asg1
(g5
S'\xe9~\x00\x00\x00\x00\x00\x00'
p692
tp693
Rp694
(lp695
(F47.617128364873025
F-122.35071030933314
tp696
a(F47.617679574652
F-122.34999778182753
tp697
asg1
(g5
S'\xea~\x00\x00\x00\x00\x00\x00'
p698
tp699
Rp700
(lp701
(F47.617024230213396
F-122.35052182005447
tp702
a(F47.617579552421695
F-122.34980397439448
tp703
asg1
(g5
S'2!\x01\x00\x00\x00\x00\x00'
p704
tp705
Rp706
(lp707
(F47.616246833784544
F-122.34522241923281
tp708
a(F47.616715401855274
F-122.34601536911588
tp709
asg1
(g5
S'\xa9<\x01\x00\x00\x00\x00\x00'
p710
tp711
Rp712
(lp713
(F47.61812122009498
F-122.34643524935494
tp714
a(F47.61851134437738
F-122.34647714441846
tp715
asg1
(g5
S'\x91=\x01\x00\x00\x00\x00\x00'
p716
tp717
Rp718
(lp719
(F47.61250205627029
F-122.3409087135821
tp720
a(F47.61311107375063
F-122.3401210073963
tp721
asg1
(g5
S'\xf1\xd4\x00\x00\x00\x00\x00\x00'
p722
tp723
Rp724
(lp725
(F47.612028889876214
F-122.34607264604286
tp726
a(F47.612638164059476
F-122.3452853629319
tp727
asg1
(g5
S'\xf2\xd4\x00\x00\x00\x00\x00\x00'
p728
tp729
Rp730
(lp731
(F47.61195107016292
F-122.3459470818446
tp732
a(F47.61256034347861
F-122.34515979844089
tp733
asg1
(g5
S'\xf5\xe4\x00\x00\x00\x00\x00\x00'
p734
tp735
Rp736
(lp737
(F47.61468159149155
F-122.35056714592389
tp738
a(F47.615290382216166
F-122.34977928102751
tp739
asg1
(g5
S'\xf6\xe4\x00\x00\x00\x00\x00\x00'
p740
tp741
Rp742
(lp743
(F47.614579463076836
F-122.35039761270497
tp744
a(F47.61518825263276
F-122.34960974711204
tp745
asg1
(g5
S')!\x01\x00\x00\x00\x00\x00'
p746
tp747
Rp748
(lp749
(F47.613048003436646
F-122.34018069247618
tp750
a(F47.613733795262625
F-122.34134086651326
tp751
asg1
(g5
S'\xf9\xd2\x00\x00\x00\x00\x00\x00'
p752
tp753
Rp754
(lp755
(F47.61146148371652
F-122.34898431697759
tp756
a(F47.61239458519685
F-122.35055388884786
tp757
asg1
(g5
S'\xfa\xe4\x00\x00\x00\x00\x00\x00'
p758
tp759
Rp760
(lp761
(F47.615259340360126
F-122.34953944351064
tp762
a(F47.615868767412074
F-122.34875238011216
tp763
asg1
(g5
S'\x8a\x1a\x01\x00\x00\x00\x00\x00'
p764
tp765
Rp766
(lp767
(F47.61723050777966
F-122.34888752244557
tp768
a(F47.61771772476119
F-122.34971177908753
tp769
asg1
(g5
S'\xfd\xe4\x00\x00\x00\x00\x00\x00'
p770
tp771
Rp772
(lp773
(F47.615990585145965
F-122.34884800766106
tp774
a(F47.61659975836284
F-122.34806058408363
tp775
asg1
(g5
S'\xfe\xe4\x00\x00\x00\x00\x00\x00'
p776
tp777
Rp778
(lp779
(F47.61590243752216
F-122.34869270612369
tp780
a(F47.616511609665885
F-122.347905282062
tp781
asg1
(g5
S'\xba\xe5\x00\x00\x00\x00\x00\x00'
p782
tp783
Rp784
(lp785
(F47.61125720536297
F-122.34477297641075
tp786
a(F47.61197737778533
F-122.34599119880113
tp787
asg1
(g5
S'\x01{\x00\x00\x00\x00\x00\x00'
p788
tp789
Rp790
(lp791
(F47.60850676257759
F-122.34397696627074
tp792
a(F47.6091628380535
F-122.34507556761778
tp793
asg1
(g5
S'\x02{\x00\x00\x00\x00\x00\x00'
p794
tp795
Rp796
(lp797
(F47.60867754415637
F-122.34388322685027
tp798
a(F47.60925048197585
F-122.3448426121245
tp799
asg1
(g5
S'\x05{\x00\x00\x00\x00\x00\x00'
p800
tp801
Rp802
(lp803
(F47.609927756747915
F-122.34638564895513
tp804
a(F47.61061186509365
F-122.34755025137434
tp805
asg1
(g5
S'\x06{\x00\x00\x00\x00\x00\x00'
p806
tp807
Rp808
(lp809
(F47.61005814503041
F-122.34621815642065
tp810
a(F47.610742255088304
F-122.34738275955603
tp811
asg1
(g5
S'\t\xe5\x00\x00\x00\x00\x00\x00'
p812
tp813
Rp814
(lp815
(F47.610774644970235
F-122.34311258372067
tp816
a(F47.611057626981015
F-122.34274037563775
tp817
asg1
(g5
S'\n{\x00\x00\x00\x00\x00\x00'
p818
tp819
Rp820
(lp821
(F47.61083285498824
F-122.34751845077322
tp822
a(F47.611509292053746
F-122.34867004909019
tp823
asg1
(g5
S'\r\x8d\x00\x00\x00\x00\x00\x00'
p824
tp825
Rp826
(lp827
(F47.61345415159476
F-122.34880273196559
tp828
a(F47.61393211064433
F-122.34961093521096
tp829
asg1
(g5
S'\x0e\x8d\x00\x00\x00\x00\x00\x00'
p830
tp831
Rp832
(lp833
(F47.61356209033547
F-122.34867116662318
tp834
a(F47.61404364409905
F-122.34948544732275
tp835
asg1
(g5
S'-!\x01\x00\x00\x00\x00\x00'
p836
tp837
Rp838
(lp839
(F47.61380916896398
F-122.34147452126513
tp840
a(F47.614493712676726
F-122.34263226793306
tp841
asg1
(g5
S'\x11}\x00\x00\x00\x00\x00\x00'
p842
tp843
Rp844
(lp845
(F47.61213874503916
F-122.34822996763889
tp846
a(F47.61274803049978
F-122.34744224347459
tp847
asg1
(g5
S'\x12}\x00\x00\x00\x00\x00\x00'
p848
tp849
Rp850
(lp851
(F47.61204595914085
F-122.34809144320732
tp852
a(F47.61265524364047
F-122.3473037190851
tp853
asg1
(g5
S'\x15\x8d\x00\x00\x00\x00\x00\x00'
p854
tp855
Rp856
(lp857
(F47.614542707293765
F-122.35061212857839
tp858
a(F47.61506651899167
F-122.35149767943189
tp859
asg1
(g5
S'\x16}\x00\x00\x00\x00\x00\x00'
p860
tp861
Rp862
(lp863
(F47.61337969328969
F-122.34636707990393
tp864
a(F47.613988788356835
F-122.34557942547427
tp865
asg1
(g5
S'\x19q\x00\x00\x00\x00\x00\x00'
p866
tp867
Rp868
(lp869
(F47.61534476759348
F-122.34407841838305
tp870
a(F47.61602861455397
F-122.3452361444388
tp871
asg1
(g5
S'\x1aq\x00\x00\x00\x00\x00\x00'
p872
tp873
Rp874
(lp875
(F47.61547690332948
F-122.34390770252865
tp876
a(F47.616160752024356
F-122.34506542928074
tp877
asg1
(g5
S'\x1dq\x00\x00\x00\x00\x00\x00'
p878
tp879
Rp880
(lp881
(F47.61666473695024
F-122.34631158141599
tp882
a(F47.6171327757178
F-122.34710289691213
tp883
asg1
(g5
S'\x1eq\x00\x00\x00\x00\x00\x00'
p884
tp885
Rp886
(lp887
(F47.61678441489523
F-122.34615674772768
tp888
a(F47.617252454737915
F-122.34694806365113
tp889
asg1
(g5
S'\x85"\x00\x00\x00\x00\x00\x00'
p890
tp891
Rp892
(lp893
(F47.61274674859789
F-122.35126331627397
tp894
a(F47.613188474358346
F-122.35210056741215
tp895
asg1
(g5
S'!q\x00\x00\x00\x00\x00\x00'
p896
tp897
Rp898
(lp899
(F47.617775310747874
F-122.34817770636319
tp900
a(F47.61824274782231
F-122.34896851072071
tp901
asg1
(g5
S'"q\x00\x00\x00\x00\x00\x00'
p902
tp903
Rp904
(lp905
(F47.61788882892209
F-122.34803092969129
tp906
a(F47.61840301052185
F-122.34890081571346
tp907
asg1
(g5
S'\x86\xd8\x00\x00\x00\x00\x00\x00'
p908
tp909
Rp910
(lp911
(F47.61702849493502
F-122.35453544816255
tp912
a(F47.61759280864293
F-122.35380692176228
tp913
asg1
(g5
S'&1\x01\x00\x00\x00\x00\x00'
p914
tp915
Rp916
(lp917
(F47.613467507499315
F-122.35045083323324
tp918
a(F47.613936372734244
F-122.35124401479762
tp919
asg1
(g5
S'1!\x01\x00\x00\x00\x00\x00'
p920
tp921
Rp922
(lp923
(F47.61609730633881
F-122.34535138385087
tp924
a(F47.61656587368812
F-122.3461443326217
tp925
asg1
(g5
S')\xcd\x00\x00\x00\x00\x00\x00'
p926
tp927
Rp928
(lp929
(F47.61294268668642
F-122.33800109377222
tp930
a(F47.61363586804576
F-122.33917330949373
tp931
asg1
(g5
S'*\xcd\x00\x00\x00\x00\x00\x00'
p932
tp933
Rp934
(lp935
(F47.61306688028957
F-122.33785390728549
tp936
a(F47.61376006316295
F-122.33902612384402
tp937
asg1
(g5
S'-\xcd\x00\x00\x00\x00\x00\x00'
p938
tp939
Rp940
(lp941
(F47.61599761376191
F-122.34316332404899
tp942
a(F47.616707013679594
F-122.34436930839308
tp943
asg1
(g5
S'\x16\x8d\x00\x00\x00\x00\x00\x00'
p944
tp945
Rp946
(lp947
(F47.61465202349133
F-122.35051367746233
tp948
a(F47.61514703553941
F-122.35135053860445
tp949
asg1
(g5
S'1\xcd\x00\x00\x00\x00\x00\x00'
p950
tp951
Rp952
(lp953
(F47.61734406902436
F-122.34543970806607
tp954
a(F47.61782285968794
F-122.3462489573555
tp955
asg1
(g5
S'2\xcd\x00\x00\x00\x00\x00\x00'
p956
tp957
Rp958
(lp959
(F47.61745187815541
F-122.34528944021028
tp960
a(F47.61793246943944
F-122.34610173288426
tp961
asg1
(g5
S'5\xe5\x00\x00\x00\x00\x00\x00'
p962
tp963
Rp964
(lp965
(F47.612895405965006
F-122.35119187430722
tp966
a(F47.61336490224777
F-122.35058130477196
tp967
asg1
(g5
S'\x89$\x00\x00\x00\x00\x00\x00'
p968
tp969
Rp970
(lp971
(F47.61269581176895
F-122.34521080136966
tp972
a(F47.613305010524684
F-122.34442280806225
tp973
asg1
(g5
S'9\xe5\x00\x00\x00\x00\x00\x00'
p974
tp975
Rp976
(lp977
(F47.61411233795366
F-122.34961424954217
tp978
a(F47.61468022005767
F-122.34887940866905
tp979
asg1
(g5
S':\xe5\x00\x00\x00\x00\x00\x00'
p980
tp981
Rp982
(lp983
(F47.614038574879025
F-122.34948343463667
tp984
a(F47.614606456135924
F-122.34874859363707
tp985
asg1
(g5
S'=\xe5\x00\x00\x00\x00\x00\x00'
p986
tp987
Rp988
(lp989
(F47.61544159052509
F-122.3479068757477
tp990
a(F47.616009795402455
F-122.34717319534715
tp991
asg1
(g5
S'>\xe5\x00\x00\x00\x00\x00\x00'
p992
tp993
Rp994
(lp995
(F47.615358651237564
F-122.34776638267003
tp996
a(F47.61592891396355
F-122.34703004340572
tp997
asg1
(g5
S'5\r\x01\x00\x00\x00\x00\x00'
p998
tp999
Rp1000
(lp1001
(F47.61522524377204
F-122.34982013997237
tp1002
a(F47.61572917505611
F-122.35067210141752
tp1003
asg1
(g5
S'B-\x01\x00\x00\x00\x00\x00'
p1004
tp1005
Rp1006
(lp1007
(F47.61605168273173
F-122.3429375947738
tp1008
a(F47.61665725177912
F-122.3421542814657
tp1009
asg1
(g5
S'\xf9\xc1\x00\x00\x00\x00\x00\x00'
p1010
tp1011
Rp1012
(lp1013
(F47.61545784051447
F-122.34622126641825
tp1014
a(F47.61594017072826
F-122.34703736518406
tp1015
asg1
(g5
S'M+\x01\x00\x00\x00\x00\x00'
p1016
tp1017
Rp1018
(lp1019
(F47.60916400059065
F-122.34507750199685
tp1020
a(F47.60992579384478
F-122.34638228782815
tp1021
asg1
(g5
S'N+\x01\x00\x00\x00\x00\x00'
p1022
tp1023
Rp1024
(lp1025
(F47.609292655747325
F-122.344913245234
tp1026
a(F47.60997219210116
F-122.34607713757995
tp1027
asg1
(g5
S'\x8dj\x00\x00\x00\x00\x00\x00'
p1028
tp1029
Rp1030
(lp1031
(F47.614664241598675
F-122.34491009571441
tp1032
a(F47.61535522092887
F-122.34607989784622
tp1033
asg1
(g5
S'Q\x11\x00\x00\x00\x00\x00\x00'
p1034
tp1035
Rp1036
(lp1037
(F47.61238420692682
F-122.3410231711819
tp1038
a(F47.613072026714065
F-122.34218634668416
tp1039
asg1
(g5
S'R\x11\x00\x00\x00\x00\x00\x00'
p1040
tp1041
Rp1042
(lp1043
(F47.612496546490114
F-122.34088057535146
tp1044
a(F47.61318976943575
F-122.34205288632535
tp1045
asg1
(g5
S'\xf9\x03\x00\x00\x00\x00\x00\x00'
p1046
tp1047
Rp1048
(lp1049
(F47.61028142523736
F-122.34147349538826
tp1050
a(F47.61032200006194
F-122.34151059421472
tp1051
asg1
(g5
S'U\x11\x00\x00\x00\x00\x00\x00'
p1052
tp1053
Rp1054
(lp1055
(F47.61601219018671
F-122.34715920741434
tp1056
a(F47.61648942669467
F-122.34796650760622
tp1057
asg1
(g5
S'V\x11\x00\x00\x00\x00\x00\x00'
p1058
tp1059
Rp1060
(lp1061
(F47.61612724297104
F-122.34702119114588
tp1062
a(F47.61659907785605
F-122.34781935265848
tp1063
asg1
(g5
S'9\r\x01\x00\x00\x00\x00\x00'
p1064
tp1065
Rp1066
(lp1067
(F47.61577954084482
F-122.35075726939297
tp1068
a(F47.61628319629538
F-122.3516090093758
tp1069
asg1
(g5
S'Y\x11\x00\x00\x00\x00\x00\x00'
p1070
tp1071
Rp1072
(lp1073
(F47.61766894638233
F-122.34996808277981
tp1074
a(F47.618145600250486
F-122.35077447949773
tp1075
asg1
(g5
S'Z\x11\x00\x00\x00\x00\x00\x00'
p1076
tp1077
Rp1078
(lp1079
(F47.61778040076866
F-122.3498239750739
tp1080
a(F47.618257055656535
F-122.35063037219895
tp1081
asg1
(g5
S':\r\x01\x00\x00\x00\x00\x00'
p1082
tp1083
Rp1084
(lp1085
(F47.61589923239592
F-122.35060246098227
tp1086
a(F47.61640288900359
F-122.35145420142597
tp1087
asg1
(g5
S"\xe5'\x00\x00\x00\x00\x00\x00"
p1088
tp1089
Rp1090
(lp1091
(F47.61276525566805
F-122.34959658437323
tp1092
a(F47.613232915126574
F-122.35038678451303
tp1093
asg1
(g5
S'\x8d\x1a\x01\x00\x00\x00\x00\x00'
p1094
tp1095
Rp1096
(lp1097
(F47.61823248476664
F-122.35094611492308
tp1098
a(F47.61852268878993
F-122.35143709806295
tp1099
asg1
(g5
S'\xe6]\x00\x00\x00\x00\x00\x00'
p1100
tp1101
Rp1102
(lp1103
(F47.6127043682293
F-122.3451940695148
tp1104
a(F47.61342447265349
F-122.3464115748077
tp1105
asg1
(g5
S'\x91|\x00\x00\x00\x00\x00\x00'
p1106
tp1107
Rp1108
(lp1109
(F47.614250445000536
F-122.34782108513292
tp1110
a(F47.6148225752897
F-122.34708122740615
tp1111
asg1
(g5
S'j\xdd\x00\x00\x00\x00\x00\x00'
p1112
tp1113
Rp1114
(lp1115
(F47.61118037367025
F-122.34464363353919
tp1116
a(F47.611744082070324
F-122.3439142075324
tp1117
asg1
(g5
S'\xf1\xe4\x00\x00\x00\x00\x00\x00'
p1118
tp1119
Rp1120
(lp1121
(F47.61343684717043
F-122.35219094308329
tp1122
a(F47.613967231149054
F-122.35149161926212
tp1123
asg1
(g5
S'm\xdd\x00\x00\x00\x00\x00\x00'
p1124
tp1125
Rp1126
(lp1127
(F47.61458696608089
F-122.34046860489875
tp1128
a(F47.6151425000008
F-122.33975028036897
tp1129
asg1
(g5
S'n\xdd\x00\x00\x00\x00\x00\x00'
p1130
tp1131
Rp1132
(lp1133
(F47.61451323566552
F-122.34033774877385
tp1134
a(F47.61506053873269
F-122.33963006598863
tp1135
asg1
(g5
S'\xfa\x03\x00\x00\x00\x00\x00\x00'
p1136
tp1137
Rp1138
(lp1139
(F47.61037733033313
F-122.34131333168921
tp1140
a(F47.61041520573358
F-122.3413479621409
tp1141
asg1
(g5
S'>-\x01\x00\x00\x00\x00\x00'
p1142
tp1143
Rp1144
(lp1145
(F47.614036132001054
F-122.34553973016438
tp1146
a(F47.614604165225686
F-122.3448049245043
tp1147
asg1
(g5
S'\xbe\xe5\x00\x00\x00\x00\x00\x00'
p1148
tp1149
Rp1150
(lp1151
(F47.615770781159085
F-122.3524058918047
tp1152
a(F47.61624309460482
F-122.35320685379166
tp1153
asg1
(g5
S'\xfe5\x01\x00\x00\x00\x00\x00'
p1154
tp1155
Rp1156
(lp1157
(F47.6131885735139
F-122.34205145411373
tp1158
a(F47.61373157481506
F-122.34134890352686
tp1159
asg1
(g5
S'\x1a\x8d\x00\x00\x00\x00\x00\x00'
p1160
tp1161
Rp1162
(lp1163
(F47.615208215109085
F-122.35145399690224
tp1164
a(F47.6156988691398
F-122.35228409256759
tp1165
asg1
(g5
S"\xea'\x00\x00\x00\x00\x00\x00"
p1166
tp1167
Rp1168
(lp1169
(F47.614009645639065
F-122.35139879525276
tp1170
a(F47.61447735660565
F-122.35219032040528
tp1171
asg1
(g5
S'\x95u\x00\x00\x00\x00\x00\x00'
p1172
tp1173
Rp1174
(lp1175
(F47.616790431454646
F-122.34450323539
tp1176
a(F47.61726848982514
F-122.34531196348443
tp1177
asg1
(g5
S'\xaa<\x01\x00\x00\x00\x00\x00'
p1178
tp1179
Rp1180
(lp1181
(F47.618093400971304
F-122.34616394998778
tp1182
a(F47.618568097650254
F-122.3462149247314
tp1183
asg1
(g5
S'A\xdc\x01\x00\x00\x00\x00\x00'
p1184
tp1185
Rp1186
(lp1187
(F47.61180584784969
F-122.34709423002728
tp1188
a(F47.61202982465819
F-122.34806378456607
tp1189
asg1
(g5
S'\xf2\xe4\x00\x00\x00\x00\x00\x00'
p1190
tp1191
Rp1192
(lp1193
(F47.613335707499104
F-122.35202014267598
tp1194
a(F47.613866091798165
F-122.35132082110833
tp1195
asg1
(g5
S'\x8a=\x01\x00\x00\x00\x00\x00'
p1196
tp1197
Rp1198
(lp1199
(F47.61658026470131
F-122.34780039034266
tp1200
a(F47.61713773463862
F-122.34707986603368
tp1201
asg1
(g5
S'\x8d\xd5\x00\x00\x00\x00\x00\x00'
p1202
tp1203
Rp1204
(lp1205
(F47.616357081802455
F-122.353403497922
tp1206
a(F47.61692557364535
F-122.3526694388058
tp1207
asg1
(g5
S'\x8e=\x01\x00\x00\x00\x00\x00'
p1208
tp1209
Rp1210
(lp1211
(F47.61725790817694
F-122.34695149905177
tp1212
a(F47.61781181239149
F-122.34623588119271
tp1213
asg1
(g5
S'\xed3\x00\x00\x00\x00\x00\x00'
p1214
tp1215
Rp1216
(lp1217
(F47.61401401384756
F-122.35143108240453
tp1218
a(F47.614622971926124
F-122.35064300729368
tp1219
asg1
(g5
S'\x91\xd5\x00\x00\x00\x00\x00\x00'
p1220
tp1221
Rp1222
(lp1223
(F47.61768807002124
F-122.35165087606043
tp1224
a(F47.618239212745635
F-122.35093841153763
tp1225
asg1
(g5
S"\xee'\x00\x00\x00\x00\x00\x00"
p1226
tp1227
Rp1228
(lp1229
(F47.615107273229306
F-122.35326672100109
tp1230
a(F47.61558615374498
F-122.35407930372797
tp1231
asg1
(g5
S'\x96u\x00\x00\x00\x00\x00\x00'
p1232
tp1233
Rp1234
(lp1235
(F47.61690188372885
F-122.34435912659738
tp1236
a(F47.61738353939615
F-122.34517393354204
tp1237
asg1
(g5
S'\xa1%\x01\x00\x00\x00\x00\x00'
p1238
tp1239
Rp1240
(lp1241
(F47.615240816122295
F-122.34191885753077
tp1242
a(F47.61592963720963
F-122.34308495013657
tp1243
asg1
(g5
S'\xa2%\x01\x00\x00\x00\x00\x00'
p1244
tp1245
Rp1246
(lp1247
(F47.61536469097867
F-122.34175880769405
tp1248
a(F47.61605711065148
F-122.34293099026537
tp1249
asg1
(g5
S'\xa5-\x01\x00\x00\x00\x00\x00'
p1250
tp1251
Rp1252
(lp1253
(F47.61469976283315
F-122.34262410301571
tp1254
a(F47.61530262247263
F-122.34184471176457
tp1255
asg1
(g5
S'\xa6-\x01\x00\x00\x00\x00\x00'
p1256
tp1257
Rp1258
(lp1259
(F47.61461420074297
F-122.34249777272352
tp1260
a(F47.61522323212403
F-122.34171040128233
tp1261
asg1
(g5
S'\xf13\x00\x00\x00\x00\x00\x00'
p1262
tp1263
Rp1264
(lp1265
(F47.6180909003688
F-122.34616458791774
tp1266
a(F47.61849261464527
F-122.34562410486443
tp1267
asg1
(g5
S'\xa9-\x01\x00\x00\x00\x00\x00'
p1268
tp1269
Rp1270
(lp1271
(F47.6153592264192
F-122.34177149128311
tp1272
a(F47.61596629267603
F-122.34098618367368
tp1273
asg1
(g5
S'\xaa-\x01\x00\x00\x00\x00\x00'
p1274
tp1275
Rp1276
(lp1277
(F47.61526769869705
F-122.34162594847352
tp1278
a(F47.61587476395094
F-122.34084064054744
tp1279
asg1
(g5
S'^\x14\x01\x00\x00\x00\x00\x00'
p1280
tp1281
Rp1282
(lp1283
(F47.61257743742776
F-122.3430140486156
tp1284
a(F47.61326208017496
F-122.3441716629969
tp1285
asg1
(g5
S'\xf23\x00\x00\x00\x00\x00\x00'
p1286
tp1287
Rp1288
(lp1289
(F47.6179169386498
F-122.34609168583064
tp1290
a(F47.61846601430905
F-122.34535293472696
tp1291
asg1
(g5
S'\xbe,\x01\x00\x00\x00\x00\x00'
p1292
tp1293
Rp1294
(lp1295
(F47.61681042940159
F-122.34421395355155
tp1296
a(F47.6173604715311
F-122.34350290819965
tp1297
asg1
(g5
S'\x1d\xc9\x00\x00\x00\x00\x00\x00'
p1298
tp1299
Rp1300
(lp1301
(F47.61227156067204
F-122.33887947912078
tp1302
a(F47.612955667622195
F-122.34003680483438
tp1303
asg1
(g5
S'\xb6\xe5\x00\x00\x00\x00\x00\x00'
p1304
tp1305
Rp1306
(lp1307
(F47.61037445947681
F-122.34357351735378
tp1308
a(F47.61070456360403
F-122.34383586440941
tp1309
asg1
(g5
S'\xb9#\x00\x00\x00\x00\x00\x00'
p1310
tp1311
Rp1312
(lp1313
(F47.61290308981279
F-122.34955296125796
tp1314
a(F47.613512339422975
F-122.34876558902455
tp1315
asg1
(g5
S'\xba#\x00\x00\x00\x00\x00\x00'
p1316
tp1317
Rp1318
(lp1319
(F47.61281314513879
F-122.34939460748993
tp1320
a(F47.613422393654666
F-122.34860723476352
tp1321
asg1
(g5
S'\xbd#\x00\x00\x00\x00\x00\x00'
p1322
tp1323
Rp1324
(lp1325
(F47.61624532578503
F-122.34525725277724
tp1326
a(F47.61679876963933
F-122.3445414018077
tp1327
asg1
(g5
S'\xbe#\x00\x00\x00\x00\x00\x00'
p1328
tp1329
Rp1330
(lp1331
(F47.61613909658288
F-122.34507147227387
tp1332
a(F47.616692539273515
F-122.34435562053028
tp1333
asg1
(g5
S'\xf5\xc1\x00\x00\x00\x00\x00\x00'
p1334
tp1335
Rp1336
(lp1337
(F47.61392590682024
F-122.34363050007497
tp1338
a(F47.61461519762626
F-122.34479631583974
tp1339
asg1
(g5
S'\xc1\xe5\x00\x00\x00\x00\x00\x00'
p1340
tp1341
Rp1342
(lp1343
(F47.616245067526904
F-122.35353709239546
tp1344
a(F47.616945212261264
F-122.3547237803801
tp1345
asg1
(g5
S'\xc2\xe5\x00\x00\x00\x00\x00\x00'
p1346
tp1347
Rp1348
(lp1349
(F47.61634607852615
F-122.35336912142208
tp1350
a(F47.617046225006696
F-122.3545558097097
tp1351
asg1
(g5
S'\xc5#\x00\x00\x00\x00\x00\x00'
p1352
tp1353
Rp1354
(lp1355
(F47.61790387043026
F-122.35602257343125
tp1356
a(F47.6184681161308
F-122.35529445379414
tp1357
asg1
(g5
S'\xc6#\x00\x00\x00\x00\x00\x00'
p1358
tp1359
Rp1360
(lp1361
(F47.61778182817763
F-122.35584643682606
tp1362
a(F47.61834607275652
F-122.35511831672727
tp1363
asg1
(g5
S'\xa1-\x01\x00\x00\x00\x00\x00'
p1364
tp1365
Rp1366
(lp1367
(F47.61335750329758
F-122.34437647961698
tp1368
a(F47.61396680886068
F-122.34358870985335
tp1369
asg1
(g5
S'\xc9%\x00\x00\x00\x00\x00\x00'
p1370
tp1371
Rp1372
(lp1373
(F47.61456679815118
F-122.35235424266486
tp1374
a(F47.61517608108434
F-122.35156583124349
tp1375
asg1
(g5
S'\xca%\x00\x00\x00\x00\x00\x00'
p1376
tp1377
Rp1378
(lp1379
(F47.614470867305336
F-122.35219823922364
tp1380
a(F47.615080149162615
F-122.3514098271697
tp1381
asg1
(g5
S'\xcd%\x00\x00\x00\x00\x00\x00'
p1382
tp1383
Rp1384
(lp1385
(F47.61590719305774
F-122.35064108316263
tp1386
a(F47.61651658838553
F-122.34985368224157
tp1387
asg1
(g5
S'\xce%\x00\x00\x00\x00\x00\x00'
p1388
tp1389
Rp1390
(lp1391
(F47.61579897018035
F-122.35045788254212
tp1392
a(F47.61637336538819
F-122.34971570408591
tp1393
asg1
(g5
S'.\xcd\x00\x00\x00\x00\x00\x00'
p1394
tp1395
Rp1396
(lp1397
(F47.616132513816794
F-122.34305935468566
tp1398
a(F47.61682462557525
F-122.3442338612903
tp1399
asg1
(g5
S'\xf9%\x00\x00\x00\x00\x00\x00'
p1400
tp1401
Rp1402
(lp1403
(F47.61646147512863
F-122.35157227380147
tp1404
a(F47.61702136888858
F-122.35084861051106
tp1405
asg1
(g5
S'\xfa3\x00\x00\x00\x00\x00\x00'
p1406
tp1407
Rp1408
(lp1409
(F47.613080242267635
F-122.33989697550794
tp1410
a(F47.61368711456813
F-122.339112140773
tp1411
asg1
(g5
S'\x1e\x8d\x00\x00\x00\x00\x00\x00'
p1412
tp1413
Rp1414
(lp1415
(F47.617117678906666
F-122.35468926763701
tp1416
a(F47.61780677118939
F-122.35585752348612
tp1417
asg1
(g5
S"\xe1'\x00\x00\x00\x00\x00\x00"
p1418
tp1419
Rp1420
(lp1421
(F47.611996007128546
F-122.3482960711934
tp1422
a(F47.61268057365746
F-122.34945341551567
tp1423
asg1
(g5
S"\xe2'\x00\x00\x00\x00\x00\x00"
p1424
tp1425
Rp1426
(lp1427
(F47.61211667066614
F-122.34820449421531
tp1428
a(F47.61280123812444
F-122.34936184001643
tp1429
asg1
(g5
S'\xe5]\x00\x00\x00\x00\x00\x00'
p1430
tp1431
Rp1432
(lp1433
(F47.61257695802915
F-122.3453481344509
tp1434
a(F47.61329706063182
F-122.34656563888974
tp1435
asg1
(g5
S"\xe6'\x00\x00\x00\x00\x00\x00"
p1436
tp1437
Rp1438
(lp1439
(F47.61289432644847
F-122.34953150263841
tp1440
a(F47.61336198635751
F-122.35032170415325
tp1441
asg1
(g5
S'Q+\x01\x00\x00\x00\x00\x00'
p1442
tp1443
Rp1444
(lp1445
(F47.61325818467145
F-122.35227183662064
tp1446
a(F47.61427237632192
F-122.35398062386021
tp1447
asg1
(g5
S'\xe9]\x00\x00\x00\x00\x00\x00'
p1448
tp1449
Rp1450
(lp1451
(F47.61334949016936
F-122.34664824621014
tp1452
a(F47.61406962670849
F-122.34786648935331
tp1453
asg1
(g5
S'\xea]\x00\x00\x00\x00\x00\x00'
p1454
tp1455
Rp1456
(lp1457
(F47.61346893412243
F-122.34649919077762
tp1458
a(F47.61418910028999
F-122.34771739835767
tp1459
asg1
(g5
S'\xed]\x00\x00\x00\x00\x00\x00'
p1460
tp1461
Rp1462
(lp1463
(F47.614676011181935
F-122.34887892973418
tp1464
a(F47.61518079014211
F-122.34973266188399
tp1465
asg1
(g5
S'\xee]\x00\x00\x00\x00\x00\x00'
p1466
tp1467
Rp1468
(lp1469
(F47.61479131447433
F-122.34873518071251
tp1470
a(F47.61529609450801
F-122.34958891361906
tp1471
asg1
(g5
S'\xfd\x03\x00\x00\x00\x00\x00\x00'
p1472
tp1473
Rp1474
(lp1475
(F47.61181526055082
F-122.34405348748164
tp1476
a(F47.612535792735954
F-122.3452723704535
tp1477
asg1
(g5
S'\xf1]\x00\x00\x00\x00\x00\x00'
p1478
tp1479
Rp1480
(lp1481
(F47.61782749881545
F-122.3542333068446
tp1482
a(F47.61835712913823
F-122.35513145282584
tp1483
asg1
(g5
S'\xf2]\x00\x00\x00\x00\x00\x00'
p1484
tp1485
Rp1486
(lp1487
(F47.61805478299573
F-122.35426711340016
tp1488
a(F47.618521575950304
F-122.3550587024584
tp1489
asg1
(g5
S'\xf53\x00\x00\x00\x00\x00\x00'
p1490
tp1491
Rp1492
(lp1493
(F47.61117202413172
F-122.34263444128527
tp1494
a(F47.611781314443014
F-122.3418464375748
tp1495
asg1
(g5
S'\xf63\x00\x00\x00\x00\x00\x00'
p1496
tp1497
Rp1498
(lp1499
(F47.61108203932181
F-122.34247614226638
tp1500
a(F47.611691328717036
F-122.34168813781076
tp1501
asg1
(g5
S'\xa9\xd6\x00\x00\x00\x00\x00\x00'
p1502
tp1503
Rp1504
(lp1505
(F47.616574200056
F-122.34977923064818
tp1506
a(F47.617129670117656
F-122.34906138096724
tp1507
asg1
(g5
S'\xf93\x00\x00\x00\x00\x00\x00'
p1508
tp1509
Rp1510
(lp1511
(F47.61316686634068
F-122.34004346877174
tp1512
a(F47.613773739650206
F-122.33925863443874
tp1513
asg1
(g5
S'\xfa%\x00\x00\x00\x00\x00\x00'
p1514
tp1515
Rp1516
(lp1517
(F47.616353234102185
F-122.35138909519252
tp1518
a(F47.61691312669889
F-122.35066543143647
tp1519
asg1
(g5
S'*!\x01\x00\x00\x00\x00\x00'
p1520
tp1521
Rp1522
(lp1523
(F47.61316358799594
F-122.34003126474262
tp1524
a(F47.613849381343435
F-122.34119143938732
tp1525
asg1
(g5
S'\xfd3\x00\x00\x00\x00\x00\x00'
p1526
tp1527
Rp1528
(lp1529
(F47.6138344166553
F-122.33918015850637
tp1530
a(F47.61438768635712
F-122.33846457786392
tp1531
asg1
(g5
S'\xfe\x03\x00\x00\x00\x00\x00\x00'
p1532
tp1533
Rp1534
(lp1535
(F47.61193470905844
F-122.34390443980192
tp1536
a(F47.61265524302031
F-122.34512332299407
tp1537
asg1
(g5
S'%1\x01\x00\x00\x00\x00\x00'
p1538
tp1539
Rp1540
(lp1541
(F47.6133418709333
F-122.35060789729046
tp1542
a(F47.613810735250354
F-122.35140107836017
tp1543
as.